target datalayout = "e-m:e-p270:32:32-p271:32:32-p272:64:64-i64:64-i128:128-f80:128-n8:16:32:64-S128"
target triple = "x86_64-pc-linux-gnu"

%struct.AVFilterGraph = type { ptr, ptr, i32, ptr, i32, i32, ptr, ptr, ptr }
%struct.AVFilterContext = type { ptr, ptr, ptr, ptr, ptr, i32, ptr, ptr, i32, ptr, ptr, i32, i32, ptr, ptr, ptr, ptr, i32, ptr, i32, i32 }
%struct.FilterLink = type { %struct.AVFilterLink, ptr, i64, i64, i32, i32, i64, i64, i64, i64, %struct.AVRational, ptr }
%struct.AVFilterLink = type { ptr, ptr, ptr, ptr, i32, i32, i32, i32, %struct.AVRational, i32, i32, i32, %struct.AVChannelLayout, %struct.AVRational, ptr, i32, %struct.AVFilterFormatsConfig, %struct.AVFilterFormatsConfig }
%struct.AVChannelLayout = type { i32, i32, %union.anon, ptr }
%union.anon = type { i64 }
%struct.AVFilterFormatsConfig = type { ptr, ptr, ptr, ptr, ptr }
%struct.AVRational = type { i32, i32 }

; Function Attrs: inlinehint nounwind uwtable
define internal ptr @ff_filter_link(ptr noundef %0) #3 {
  %2 = alloca ptr, align 8
  store ptr %0, ptr %2, align 8, !tbaa !33
  %3 = load ptr, ptr %2, align 8, !tbaa !33
  ret ptr %3
}

; Function Attrs: nounwind uwtable
define void @ff_filter_graph_remove_filter(ptr noundef %0, ptr noundef %1) #0 {
  %3 = alloca ptr, align 8
  %4 = alloca ptr, align 8
  %5 = alloca i32, align 4
  %6 = alloca i32, align 4
  %7 = alloca ptr, align 8
  %8 = alloca i32, align 4
  store ptr %0, ptr %3, align 8, !tbaa !9
  store ptr %1, ptr %4, align 8, !tbaa !18
  call void @llvm.lifetime.start.p0(i64 4, ptr %5) #11
  call void @llvm.lifetime.start.p0(i64 4, ptr %6) #11
  store i32 0, ptr %5, align 4, !tbaa !20
  br label %9

9:                                                ; preds = %99, %2
  %10 = load i32, ptr %5, align 4, !tbaa !20
  %11 = load ptr, ptr %3, align 8, !tbaa !9
  %12 = getelementptr inbounds nuw %struct.AVFilterGraph, ptr %11, i32 0, i32 2
  %13 = load i32, ptr %12, align 8, !tbaa !21
  %14 = icmp ult i32 %10, %13
  br i1 %14, label %15, label %102

15:                                               ; preds = %9
  %16 = load ptr, ptr %3, align 8, !tbaa !9
  %17 = getelementptr inbounds nuw %struct.AVFilterGraph, ptr %16, i32 0, i32 1
  %18 = load ptr, ptr %17, align 8, !tbaa !22
  %19 = load i32, ptr %5, align 4, !tbaa !20
  %20 = sext i32 %19 to i64
  %21 = getelementptr inbounds ptr, ptr %18, i64 %20
  %22 = load ptr, ptr %21, align 8, !tbaa !18
  %23 = load ptr, ptr %4, align 8, !tbaa !18
  %24 = icmp eq ptr %22, %23
  br i1 %24, label %25, label %98

25:                                               ; preds = %15
  br label %26

26:                                               ; preds = %25
  call void @llvm.lifetime.start.p0(i64 8, ptr %7) #11
  %27 = load ptr, ptr %3, align 8, !tbaa !9
  %28 = getelementptr inbounds nuw %struct.AVFilterGraph, ptr %27, i32 0, i32 1
  %29 = load ptr, ptr %28, align 8, !tbaa !22
  %30 = load ptr, ptr %3, align 8, !tbaa !9
  %31 = getelementptr inbounds nuw %struct.AVFilterGraph, ptr %30, i32 0, i32 2
  %32 = load i32, ptr %31, align 8, !tbaa !21
  %33 = sub i32 %32, 1
  %34 = zext i32 %33 to i64
  %35 = getelementptr inbounds nuw ptr, ptr %29, i64 %34
  %36 = load ptr, ptr %35, align 8, !tbaa !18
  store ptr %36, ptr %7, align 8, !tbaa !18
  %37 = load ptr, ptr %3, align 8, !tbaa !9
  %38 = getelementptr inbounds nuw %struct.AVFilterGraph, ptr %37, i32 0, i32 1
  %39 = load ptr, ptr %38, align 8, !tbaa !22
  %40 = load i32, ptr %5, align 4, !tbaa !20
  %41 = sext i32 %40 to i64
  %42 = getelementptr inbounds ptr, ptr %39, i64 %41
  %43 = load ptr, ptr %42, align 8, !tbaa !18
  %44 = load ptr, ptr %3, align 8, !tbaa !9
  %45 = getelementptr inbounds nuw %struct.AVFilterGraph, ptr %44, i32 0, i32 1
  %46 = load ptr, ptr %45, align 8, !tbaa !22
  %47 = load ptr, ptr %3, align 8, !tbaa !9
  %48 = getelementptr inbounds nuw %struct.AVFilterGraph, ptr %47, i32 0, i32 2
  %49 = load i32, ptr %48, align 8, !tbaa !21
  %50 = sub i32 %49, 1
  %51 = zext i32 %50 to i64
  %52 = getelementptr inbounds nuw ptr, ptr %46, i64 %51
  store ptr %43, ptr %52, align 8, !tbaa !18
  %53 = load ptr, ptr %7, align 8, !tbaa !18
  %54 = load ptr, ptr %3, align 8, !tbaa !9
  %55 = getelementptr inbounds nuw %struct.AVFilterGraph, ptr %54, i32 0, i32 1
  %56 = load ptr, ptr %55, align 8, !tbaa !22
  %57 = load i32, ptr %5, align 4, !tbaa !20
  %58 = sext i32 %57 to i64
  %59 = getelementptr inbounds ptr, ptr %56, i64 %58
  store ptr %53, ptr %59, align 8, !tbaa !18
  call void @llvm.lifetime.end.p0(i64 8, ptr %7) #11
  br label %60

60:                                               ; preds = %26
  br label %61

61:                                               ; preds = %60
  %62 = load ptr, ptr %3, align 8, !tbaa !9
  %63 = getelementptr inbounds nuw %struct.AVFilterGraph, ptr %62, i32 0, i32 2
  %64 = load i32, ptr %63, align 8, !tbaa !21
  %65 = add i32 %64, -1
  store i32 %65, ptr %63, align 8, !tbaa !21
  %66 = load ptr, ptr %4, align 8, !tbaa !18
  %67 = getelementptr inbounds nuw %struct.AVFilterContext, ptr %66, i32 0, i32 10
  store ptr null, ptr %67, align 8, !tbaa !23
  store i32 0, ptr %6, align 4, !tbaa !20
  br label %68

68:                                               ; preds = %94, %61
  %69 = load i32, ptr %6, align 4, !tbaa !20
  %70 = load ptr, ptr %4, align 8, !tbaa !18
  %71 = getelementptr inbounds nuw %struct.AVFilterContext, ptr %70, i32 0, i32 8
  %72 = load i32, ptr %71, align 8, !tbaa !31
  %73 = icmp ult i32 %69, %72
  br i1 %73, label %74, label %97

74:                                               ; preds = %68
  %75 = load ptr, ptr %4, align 8, !tbaa !18
  %76 = getelementptr inbounds nuw %struct.AVFilterContext, ptr %75, i32 0, i32 7
  %77 = load ptr, ptr %76, align 8, !tbaa !32
  %78 = load i32, ptr %6, align 4, !tbaa !20
  %79 = sext i32 %78 to i64
  %80 = getelementptr inbounds ptr, ptr %77, i64 %79
  %81 = load ptr, ptr %80, align 8, !tbaa !33
  %82 = icmp ne ptr %81, null
  br i1 %82, label %83, label %93

83:                                               ; preds = %74
  %84 = load ptr, ptr %4, align 8, !tbaa !18
  %85 = getelementptr inbounds nuw %struct.AVFilterContext, ptr %84, i32 0, i32 7
  %86 = load ptr, ptr %85, align 8, !tbaa !32
  %87 = load i32, ptr %6, align 4, !tbaa !20
  %88 = sext i32 %87 to i64
  %89 = getelementptr inbounds ptr, ptr %86, i64 %88
  %90 = load ptr, ptr %89, align 8, !tbaa !33
  %91 = call ptr @ff_filter_link(ptr noundef %90)
  %92 = getelementptr inbounds nuw %struct.FilterLink, ptr %91, i32 0, i32 1
  store ptr null, ptr %92, align 8, !tbaa !35
  br label %93

93:                                               ; preds = %83, %74
  br label %94

94:                                               ; preds = %93
  %95 = load i32, ptr %6, align 4, !tbaa !20
  %96 = add nsw i32 %95, 1
  store i32 %96, ptr %6, align 4, !tbaa !20
  br label %68, !llvm.loop !45

97:                                               ; preds = %68
  store i32 1, ptr %8, align 4
  br label %103

98:                                               ; preds = %15
  br label %99

99:                                               ; preds = %98
  %100 = load i32, ptr %5, align 4, !tbaa !20
  %101 = add nsw i32 %100, 1
  store i32 %101, ptr %5, align 4, !tbaa !20
  br label %9, !llvm.loop !47

102:                                              ; preds = %9
  store i32 0, ptr %8, align 4
  br label %103

103:                                              ; preds = %102, %97
  call void @llvm.lifetime.end.p0(i64 4, ptr %6) #11
  call void @llvm.lifetime.end.p0(i64 4, ptr %5) #11
  %104 = load i32, ptr %8, align 4
  switch i32 %104, label %106 [
    i32 0, label %105
    i32 1, label %105
  ]

105:                                              ; preds = %103, %103
  ret void

106:                                              ; preds = %103
  unreachable
}