; Function Attrs: nofree norecurse nosync nounwind memory(readwrite, inaccessiblemem: none) uwtable
define void @ff_filter_graph_remove_filter(ptr noundef captures(none) %0, ptr noundef captures(address) %1) local_unnamed_addr #3 {
  %3 = getelementptr inbounds nuw i8, ptr %0, i64 16
  %4 = load i32, ptr %3, align 8, !tbaa !14
  %.not39 = icmp eq i32 %4, 0
  br i1 %.not39, label %.loopexit, label %.lr.ph

.lr.ph:                                           ; preds = %2
  %5 = getelementptr inbounds nuw i8, ptr %0, i64 8
  %6 = load ptr, ptr %5, align 8, !tbaa !15
  %wide.trip.count = zext i32 %4 to i64
  br label %8

7:                                                ; preds = %8
  %indvars.iv.next = add nuw nsw i64 %indvars.iv, 1
  %exitcond.not = icmp eq i64 %indvars.iv.next, %wide.trip.count
  br i1 %exitcond.not, label %.loopexit, label %8, !llvm.loop !16

8:                                                ; preds = %.lr.ph, %7
  %indvars.iv = phi i64 [ 0, %.lr.ph ], [ %indvars.iv.next, %7 ]
  %9 = getelementptr inbounds nuw ptr, ptr %6, i64 %indvars.iv
  %10 = load ptr, ptr %9, align 8, !tbaa !18
  %11 = icmp eq ptr %10, %1
  br i1 %11, label %12, label %7

12:                                               ; preds = %8
  %13 = getelementptr inbounds nuw ptr, ptr %6, i64 %indvars.iv
  %14 = add i32 %4, -1
  %15 = zext i32 %14 to i64
  %16 = getelementptr inbounds nuw ptr, ptr %6, i64 %15
  %17 = load ptr, ptr %16, align 8, !tbaa !18
  store ptr %10, ptr %16, align 8, !tbaa !18
  store ptr %17, ptr %13, align 8, !tbaa !18
  store i32 %14, ptr %3, align 8, !tbaa !14
  %18 = getelementptr inbounds nuw i8, ptr %1, i64 80
  store ptr null, ptr %18, align 8, !tbaa !20
  %19 = getelementptr inbounds nuw i8, ptr %1, i64 64
  %20 = load i32, ptr %19, align 8, !tbaa !29
  %.not40 = icmp eq i32 %20, 0
  br i1 %.not40, label %.loopexit, label %.lr.ph38

.lr.ph38:                                         ; preds = %12
  %21 = getelementptr inbounds nuw i8, ptr %1, i64 56
  %22 = load ptr, ptr %21, align 8, !tbaa !30
  %wide.trip.count49 = zext i32 %20 to i64
  br label %23

23:                                               ; preds = %.lr.ph38, %28
  %indvars.iv46 = phi i64 [ 0, %.lr.ph38 ], [ %indvars.iv.next47, %28 ]
  %24 = getelementptr inbounds nuw ptr, ptr %22, i64 %indvars.iv46
  %25 = load ptr, ptr %24, align 8, !tbaa !31
  %.not = icmp eq ptr %25, null
  br i1 %.not, label %28, label %26

26:                                               ; preds = %23
  %27 = getelementptr inbounds nuw i8, ptr %25, i64 200
  store ptr null, ptr %27, align 8, !tbaa !33
  br label %28

28:                                               ; preds = %23, %26
  %indvars.iv.next47 = add nuw nsw i64 %indvars.iv46, 1
  %exitcond50.not = icmp eq i64 %indvars.iv.next47, %wide.trip.count49
  br i1 %exitcond50.not, label %.loopexit, label %23, !llvm.loop !43

.loopexit:                                        ; preds = %7, %28, %2, %12
  ret void
}